; ModuleID = 'source-C-CXX/29/1322.cpp'
source_filename = "source-C-CXX/29/1322.cpp"
target datalayout = "e-m:e-p270:32:32-p271:32:32-p272:64:64-i64:64-f80:128-n8:16:32:64-S128"
target triple = "x86_64-pc-linux-gnu"

%"class.std::ios_base::Init" = type { i8 }
%"class.std::basic_istream" = type { i32 (...)**, i64, %"class.std::basic_ios" }
%"class.std::basic_ios" = type { %"class.std::ios_base", %"class.std::basic_ostream"*, i8, i8, %"class.std::basic_streambuf"*, %"class.std::ctype"*, %"class.std::num_put"*, %"class.std::num_get"* }
%"class.std::ios_base" = type { i32 (...)**, i64, i64, i32, i32, i32, %"struct.std::ios_base::_Callback_list"*, %"struct.std::ios_base::_Words", [8 x %"struct.std::ios_base::_Words"], i32, %"struct.std::ios_base::_Words"*, %"class.std::locale" }
%"struct.std::ios_base::_Callback_list" = type { %"struct.std::ios_base::_Callback_list"*, void (i32, %"class.std::ios_base"*, i32)*, i32, i32 }
%"struct.std::ios_base::_Words" = type { i8*, i64 }
%"class.std::locale" = type { %"class.std::locale::_Impl"* }
%"class.std::locale::_Impl" = type { i32, %"class.std::locale::facet"**, i64, %"class.std::locale::facet"**, i8** }
%"class.std::locale::facet" = type <{ i32 (...)**, i32, [4 x i8] }>
%"class.std::basic_ostream" = type { i32 (...)**, %"class.std::basic_ios" }
%"class.std::basic_streambuf" = type { i32 (...)**, i8*, i8*, i8*, i8*, i8*, i8*, %"class.std::locale" }
%"class.std::ctype" = type <{ %"class.std::locale::facet.base", [4 x i8], %struct.__locale_struct*, i8, [7 x i8], i32*, i32*, i16*, i8, [256 x i8], [256 x i8], i8, [6 x i8] }>
%"class.std::locale::facet.base" = type <{ i32 (...)**, i32 }>
%struct.__locale_struct = type { [13 x %struct.__locale_data*], i16*, i32*, i32*, [13 x i8*] }
%struct.__locale_data = type opaque
%"class.std::num_put" = type { %"class.std::locale::facet.base", [4 x i8] }
%"class.std::num_get" = type { %"class.std::locale::facet.base", [4 x i8] }

@_ZStL8__ioinit = internal global %"class.std::ios_base::Init" zeroinitializer, align 1
@__dso_handle = external hidden global i8
@_ZSt3cin = external global %"class.std::basic_istream", align 8
@_ZSt4cout = external global %"class.std::basic_ostream", align 8
@llvm.global_ctors = appending global [1 x { i32, void ()*, i8* }] [{ i32, void ()*, i8* } { i32 65535, void ()* @_GLOBAL__sub_I_1322.cpp, i8* null }]

declare void @_ZNSt8ios_base4InitC1Ev(%"class.std::ios_base::Init"* nonnull align 1 dereferenceable(1)) unnamed_addr #0

; Function Attrs: nounwind
declare void @_ZNSt8ios_base4InitD1Ev(%"class.std::ios_base::Init"* nonnull align 1 dereferenceable(1)) unnamed_addr #1

; Function Attrs: nofree nounwind
declare i32 @__cxa_atexit(void (i8*)*, i8*, i8*) local_unnamed_addr #2

; Function Attrs: mustprogress norecurse sspstrong uwtable
define dso_local i32 @main() local_unnamed_addr #3 {
  %1 = alloca i32, align 4
  %2 = bitcast i32* %1 to i8*
  call void @llvm.lifetime.start.p0i8(i64 4, i8* nonnull %2) #7
  %3 = call nonnull align 8 dereferenceable(16) %"class.std::basic_istream"* @_ZNSirsERi(%"class.std::basic_istream"* nonnull align 8 dereferenceable(16) @_ZSt3cin, i32* nonnull align 4 dereferenceable(4) %1)
  %4 = load i32, i32* %1, align 4, !tbaa !5
  %5 = icmp slt i32 %4, 7
  br i1 %5, label %6, label %24

6:                                                ; preds = %0
  %7 = icmp slt i32 %4, 0
  br i1 %7, label %86, label %8

8:                                                ; preds = %6
  %9 = zext i32 %4 to i33
  %10 = add nsw i32 %4, -1
  %11 = zext i32 %10 to i33
  %12 = mul i33 %9, %11
  %13 = add nsw i32 %4, -2
  %14 = zext i32 %13 to i33
  %15 = mul i33 %12, %14
  %16 = lshr i33 %15, 1
  %17 = trunc i33 %16 to i32
  %18 = mul i32 %17, 1431655766
  %19 = lshr i33 %12, 1
  %20 = trunc i33 %19 to i32
  %21 = mul i32 %20, 3
  %22 = add i32 %4, %18
  %23 = add i32 %22, %21
  br label %86

24:                                               ; preds = %0
  %25 = zext i32 %4 to i33
  %26 = add nsw i32 %4, -1
  %27 = zext i32 %26 to i33
  %28 = mul i33 %25, %27
  %29 = add nsw i32 %4, -2
  %30 = zext i32 %29 to i33
  %31 = mul i33 %28, %30
  %32 = lshr i33 %31, 1
  %33 = trunc i33 %32 to i32
  %34 = mul i32 %33, 1431655766
  %35 = lshr i33 %28, 1
  %36 = trunc i33 %35 to i32
  %37 = mul i32 %36, 3
  %38 = add i32 %4, %34
  %39 = add i32 %38, %37
  br label %40

40:                                               ; preds = %24, %40
  %41 = phi i32 [ %45, %40 ], [ 0, %24 ]
  %42 = phi i32 [ %46, %40 ], [ 1, %24 ]
  %43 = mul nsw i32 %42, 49
  %44 = mul nsw i32 %43, %42
  %45 = add nuw nsw i32 %44, %41
  %46 = add nuw nsw i32 %42, 1
  %47 = mul nsw i32 %46, 7
  %48 = icmp sgt i32 %47, %4
  br i1 %48, label %49, label %40, !llvm.loop !9

49:                                               ; preds = %40, %49
  %50 = phi i32 [ %57, %49 ], [ 7, %40 ]
  %51 = phi i32 [ %54, %49 ], [ 0, %40 ]
  %52 = phi i32 [ %55, %49 ], [ 0, %40 ]
  %53 = mul nsw i32 %50, %50
  %54 = add nuw nsw i32 %53, %51
  %55 = add nuw nsw i32 %52, 1
  %56 = mul nsw i32 %55, 10
  %57 = add nuw nsw i32 %56, 7
  %58 = icmp sgt i32 %57, %4
  br i1 %58, label %59, label %49, !llvm.loop !11

59:                                               ; preds = %49
  %60 = icmp slt i32 %4, 70
  br i1 %60, label %61, label %65

61:                                               ; preds = %59
  %62 = add i32 %39, 49
  %63 = add nuw i32 %45, %54
  %64 = sub i32 %62, %63
  br label %86

65:                                               ; preds = %59
  %66 = icmp slt i32 %4, 80
  br i1 %66, label %67, label %82

67:                                               ; preds = %65
  %68 = icmp slt i32 %4, 71
  br i1 %68, label %77, label %69

69:                                               ; preds = %67, %69
  %70 = phi i32 [ %73, %69 ], [ %39, %67 ]
  %71 = phi i32 [ %74, %69 ], [ 1, %67 ]
  %72 = mul nsw i32 %71, %71
  %73 = sub nsw i32 %70, %72
  %74 = add nuw nsw i32 %71, 1
  %75 = add nuw nsw i32 %71, 71
  %76 = icmp sgt i32 %75, %4
  br i1 %76, label %77, label %69, !llvm.loop !12

77:                                               ; preds = %69, %67
  %78 = phi i32 [ %39, %67 ], [ %73, %69 ]
  %79 = icmp eq i32 %4, 77
  %80 = add nsw i32 %78, 11858
  %81 = select i1 %79, i32 %80, i32 %78
  br label %86

82:                                               ; preds = %65
  %83 = add i32 %39, -38778
  %84 = add nuw i32 %45, %54
  %85 = sub i32 %83, %84
  br label %86

86:                                               ; preds = %8, %6, %77, %61, %82
  %87 = phi i32 [ %64, %61 ], [ %85, %82 ], [ %81, %77 ], [ 0, %6 ], [ %23, %8 ]
  %88 = call nonnull align 8 dereferenceable(8) %"class.std::basic_ostream"* @_ZNSolsEi(%"class.std::basic_ostream"* nonnull align 8 dereferenceable(8) @_ZSt4cout, i32 %87)
  %89 = bitcast %"class.std::basic_ostream"* %88 to i8**
  %90 = load i8*, i8** %89, align 8, !tbaa !13
  %91 = getelementptr i8, i8* %90, i64 -24
  %92 = bitcast i8* %91 to i64*
  %93 = load i64, i64* %92, align 8
  %94 = bitcast %"class.std::basic_ostream"* %88 to i8*
  %95 = add nsw i64 %93, 240
  %96 = getelementptr inbounds i8, i8* %94, i64 %95
  %97 = bitcast i8* %96 to %"class.std::ctype"**
  %98 = load %"class.std::ctype"*, %"class.std::ctype"** %97, align 8, !tbaa !15
  %99 = icmp eq %"class.std::ctype"* %98, null
  br i1 %99, label %100, label %101

100:                                              ; preds = %86
  call void @_ZSt16__throw_bad_castv() #8
  unreachable

101:                                              ; preds = %86
  %102 = getelementptr inbounds %"class.std::ctype", %"class.std::ctype"* %98, i64 0, i32 8
  %103 = load i8, i8* %102, align 8, !tbaa !19
  %104 = icmp eq i8 %103, 0
  br i1 %104, label %108, label %105

105:                                              ; preds = %101
  %106 = getelementptr inbounds %"class.std::ctype", %"class.std::ctype"* %98, i64 0, i32 9, i64 10
  %107 = load i8, i8* %106, align 1, !tbaa !21
  br label %114

108:                                              ; preds = %101
  call void @_ZNKSt5ctypeIcE13_M_widen_initEv(%"class.std::ctype"* nonnull align 8 dereferenceable(570) %98)
  %109 = bitcast %"class.std::ctype"* %98 to i8 (%"class.std::ctype"*, i8)***
  %110 = load i8 (%"class.std::ctype"*, i8)**, i8 (%"class.std::ctype"*, i8)*** %109, align 8, !tbaa !13
  %111 = getelementptr inbounds i8 (%"class.std::ctype"*, i8)*, i8 (%"class.std::ctype"*, i8)** %110, i64 6
  %112 = load i8 (%"class.std::ctype"*, i8)*, i8 (%"class.std::ctype"*, i8)** %111, align 8
  %113 = call signext i8 %112(%"class.std::ctype"* nonnull align 8 dereferenceable(570) %98, i8 signext 10)
  br label %114

114:                                              ; preds = %105, %108
  %115 = phi i8 [ %107, %105 ], [ %113, %108 ]
  %116 = call nonnull align 8 dereferenceable(8) %"class.std::basic_ostream"* @_ZNSo3putEc(%"class.std::basic_ostream"* nonnull align 8 dereferenceable(8) %88, i8 signext %115)
  %117 = call nonnull align 8 dereferenceable(8) %"class.std::basic_ostream"* @_ZNSo5flushEv(%"class.std::basic_ostream"* nonnull align 8 dereferenceable(8) %116)
  call void @llvm.lifetime.end.p0i8(i64 4, i8* nonnull %2) #7
  ret i32 0
}

; Function Attrs: argmemonly mustprogress nofree nosync nounwind willreturn
declare void @llvm.lifetime.start.p0i8(i64 immarg, i8* nocapture) #4

declare nonnull align 8 dereferenceable(16) %"class.std::basic_istream"* @_ZNSirsERi(%"class.std::basic_istream"* nonnull align 8 dereferenceable(16), i32* nonnull align 4 dereferenceable(4)) local_unnamed_addr #0

declare nonnull align 8 dereferenceable(8) %"class.std::basic_ostream"* @_ZNSolsEi(%"class.std::basic_ostream"* nonnull align 8 dereferenceable(8), i32) local_unnamed_addr #0

; Function Attrs: argmemonly mustprogress nofree nosync nounwind willreturn
declare void @llvm.lifetime.end.p0i8(i64 immarg, i8* nocapture) #4

declare nonnull align 8 dereferenceable(8) %"class.std::basic_ostream"* @_ZNSo3putEc(%"class.std::basic_ostream"* nonnull align 8 dereferenceable(8), i8 signext) local_unnamed_addr #0

declare nonnull align 8 dereferenceable(8) %"class.std::basic_ostream"* @_ZNSo5flushEv(%"class.std::basic_ostream"* nonnull align 8 dereferenceable(8)) local_unnamed_addr #0

; Function Attrs: noreturn
declare void @_ZSt16__throw_bad_castv() local_unnamed_addr #5

declare void @_ZNKSt5ctypeIcE13_M_widen_initEv(%"class.std::ctype"* nonnull align 8 dereferenceable(570)) local_unnamed_addr #0

; Function Attrs: sspstrong uwtable
define internal void @_GLOBAL__sub_I_1322.cpp() #6 section ".text.startup" {
  tail call void @_ZNSt8ios_base4InitC1Ev(%"class.std::ios_base::Init"* nonnull align 1 dereferenceable(1) @_ZStL8__ioinit)
  %1 = tail call i32 @__cxa_atexit(void (i8*)* bitcast (void (%"class.std::ios_base::Init"*)* @_ZNSt8ios_base4InitD1Ev to void (i8*)*), i8* getelementptr inbounds (%"class.std::ios_base::Init", %"class.std::ios_base::Init"* @_ZStL8__ioinit, i64 0, i32 0), i8* nonnull @__dso_handle) #7
  ret void
}


!llvm.module.flags = !{!0, !1, !2, !3}
!llvm.ident = !{!4}

!0 = !{i32 1, !"wchar_size", i32 4}
!1 = !{i32 7, !"PIC Level", i32 2}
!2 = !{i32 7, !"PIE Level", i32 2}
!3 = !{i32 7, !"uwtable", i32 1}
!4 = !{!"clang version 13.0.0"}
!5 = !{!6, !6, i64 0}
!6 = !{!"int", !7, i64 0}
!7 = !{!"omnipotent char", !8, i64 0}
!8 = !{!"Simple C++ TBAA"}
!9 = distinct !{!9, !10}
!10 = !{!"llvm.loop.mustprogress"}
!11 = distinct !{!11, !10}
!12 = distinct !{!12, !10}
!13 = !{!14, !14, i64 0}
!14 = !{!"vtable pointer", !8, i64 0}
!15 = !{!16, !17, i64 240}
!16 = !{!"_ZTSSt9basic_iosIcSt11char_traitsIcEE", !17, i64 216, !7, i64 224, !18, i64 225, !17, i64 232, !17, i64 240, !17, i64 248, !17, i64 256}
!17 = !{!"any pointer", !7, i64 0}
!18 = !{!"bool", !7, i64 0}
!19 = !{!20, !7, i64 56}
!20 = !{!"_ZTSSt5ctypeIcE", !17, i64 16, !18, i64 24, !17, i64 32, !17, i64 40, !17, i64 48, !7, i64 56, !7, i64 57, !7, i64 313, !7, i64 569}
!21 = !{!7, !7, i64 0}
